target datalayout = "e-m:e-p270:32:32-p271:32:32-p272:64:64-i64:64-i128:128-f80:128-n8:16:32:64-S128"
target triple = "x86_64-pc-linux-gnu"

%struct.strvec = type { ptr, i64, i64 }
%struct.strbuf = type { i64, i64, ptr }
%struct.diff_options = type { ptr, ptr, i32, i32, ptr, i32, ptr, i64, i64, ptr, ptr, ptr, ptr, %struct.diff_flags, i32, i32, i32, i32, i32, i32, i32, i32, i32, i32, i32, i32, i32, i32, i32, i32, i32, i32, i32, i32, i32, i32, ptr, i32, ptr, i32, i32, ptr, i64, i64, i32, i32, i32, i32, ptr, i32, i32, ptr, i32, i32, ptr, ptr, i32, [3 x i8], %struct.pathspec, ptr, ptr, ptr, ptr, ptr, ptr, ptr, ptr, i32, ptr, i32, i32, ptr, ptr, i32 }
%struct.diff_flags = type { i32, i32, i32, i32, i32, i32, i32, i32, i32, i32, i32, i32, i32, i32, i32, i32, i32, i32, i32, i32, i32, i32, i32, i32, i32, i32, i32, i32, i32, i32, i32, i32, i32, i32, i32 }
%struct.pathspec = type { i32, i8, i32, i32, ptr }
%struct.git_graph = type { ptr, ptr, i32, i32, i32, i32, i32, i32, i32, i32, i32, i32, i32, i32, i32, i32, ptr, ptr, ptr, ptr, i16, %struct.strbuf }
%struct.rev_info = type { ptr, %struct.object_array, ptr, %struct.object_array, %struct.rev_cmdline_info, %struct.list_objects_filter_options, %struct.ref_exclusions, ptr, ptr, ptr, %struct.pathspec, i32, i32, i32, i32, i64, i32, i32, %struct.date_mode, i32, i32, i32, i32, ptr, i32, i32, ptr, ptr, i32, ptr, ptr, %struct.ident_split, ptr, i32, ptr, ptr, ptr, i32, i32, i32, ptr, %struct.grep_opt, ptr, i32, i32, i64, i64, i64, i32, i32, ptr, ptr, ptr, %struct.diff_options, %struct.diff_options, ptr, %struct.decoration, %struct.decoration, %struct.decoration, %struct.display_notes_opt, ptr, ptr, ptr, ptr, ptr, i32, ptr, i32, i32, i32, %struct.decoration, ptr, ptr, ptr, ptr, ptr, ptr, ptr, i32, ptr, i32, ptr, %struct.oidset }
%struct.object_array = type { i32, i32, ptr }
%struct.rev_cmdline_info = type { i32, i32, ptr }
%struct.list_objects_filter_options = type { %struct.strbuf, i32, i8, ptr, i64, i64, i32, i64, i64, ptr }
%struct.ref_exclusions = type { %struct.string_list, %struct.strvec, i8 }
%struct.string_list = type { ptr, i64, i64, i8, ptr }
%struct.date_mode = type { i32, i32, ptr }
%struct.ident_split = type { ptr, ptr, ptr, ptr, ptr, ptr, ptr, ptr }
%struct.grep_opt = type { ptr, ptr, ptr, ptr, ptr, ptr, i32, i32, i32, i32, i32, i32, i32, i32, i32, i32, i32, i32, i32, i32, i32, i32, i32, i32, i32, i32, i32, i32, i32, i32, i32, i32, [9 x [75 x i8]], i32, i32, i32, i32, i32, i32, i32, ptr, ptr, ptr }
%struct.display_notes_opt = type { i32, %struct.string_list }
%struct.decoration = type { ptr, i32, i32, ptr }
%struct.oidset = type { %struct.kh_oid_set }
%struct.kh_oid_set = type { i32, i32, i32, i32, ptr, ptr, ptr }

@default_diffopt = internal global ptr null, align 8
@strbuf_slopbuf = external global [0 x i8], align 1
@__const.graph_show_commit.msgbuf = private unnamed_addr constant %struct.strbuf { i64 0, i64 0, ptr @strbuf_slopbuf }, align 8
@__const.graph_show_padding.msgbuf = private unnamed_addr constant %struct.strbuf { i64 0, i64 0, ptr @strbuf_slopbuf }, align 8
@.str.6 = private unnamed_addr constant [11 x i8] c"./strbuf.h\00", align 1
@.str.7 = private unnamed_addr constant [30 x i8] c"strbuf_setlen() beyond buffer\00", align 1

; Function Attrs: inlinehint nounwind uwtable
define internal void @strbuf_setlen(ptr noundef %0, i64 noundef %1) #4 {
  %3 = alloca ptr, align 8
  %4 = alloca i64, align 8
  store ptr %0, ptr %3, align 8, !tbaa !123
  store i64 %1, ptr %4, align 8, !tbaa !103
  %5 = load i64, ptr %4, align 8, !tbaa !103
  %6 = load ptr, ptr %3, align 8, !tbaa !123
  %7 = getelementptr inbounds nuw %struct.strbuf, ptr %6, i32 0, i32 0
  %8 = load i64, ptr %7, align 8, !tbaa !147
  %9 = icmp ne i64 %8, 0
  br i1 %9, label %10, label %15

10:                                               ; preds = %2
  %11 = load ptr, ptr %3, align 8, !tbaa !123
  %12 = getelementptr inbounds nuw %struct.strbuf, ptr %11, i32 0, i32 0
  %13 = load i64, ptr %12, align 8, !tbaa !147
  %14 = sub i64 %13, 1
  br label %16

15:                                               ; preds = %2
  br label %16

16:                                               ; preds = %15, %10
  %17 = phi i64 [ %14, %10 ], [ 0, %15 ]
  %18 = icmp ugt i64 %5, %17
  br i1 %18, label %19, label %20

19:                                               ; preds = %16
  call void (ptr, i32, ptr, ...) @BUG_fl(ptr noundef @.str.6, i32 noundef 167, ptr noundef @.str.7) #10
  unreachable

20:                                               ; preds = %16
  %21 = load i64, ptr %4, align 8, !tbaa !103
  %22 = load ptr, ptr %3, align 8, !tbaa !123
  %23 = getelementptr inbounds nuw %struct.strbuf, ptr %22, i32 0, i32 1
  store i64 %21, ptr %23, align 8, !tbaa !143
  %24 = load ptr, ptr %3, align 8, !tbaa !123
  %25 = getelementptr inbounds nuw %struct.strbuf, ptr %24, i32 0, i32 2
  %26 = load ptr, ptr %25, align 8, !tbaa !142
  %27 = icmp ne ptr %26, @strbuf_slopbuf
  br i1 %27, label %28, label %34

28:                                               ; preds = %20
  %29 = load ptr, ptr %3, align 8, !tbaa !123
  %30 = getelementptr inbounds nuw %struct.strbuf, ptr %29, i32 0, i32 2
  %31 = load ptr, ptr %30, align 8, !tbaa !142
  %32 = load i64, ptr %4, align 8, !tbaa !103
  %33 = getelementptr inbounds nuw i8, ptr %31, i64 %32
  store i8 0, ptr %33, align 1, !tbaa !134
  br label %35

34:                                               ; preds = %20
  br label %35

35:                                               ; preds = %34, %28
  ret void
}

; Function Attrs: nounwind uwtable
define dso_local void @graph_show_padding(ptr noundef %0) #0 {
  %2 = alloca ptr, align 8
  %3 = alloca %struct.strbuf, align 8
  %4 = alloca i32, align 4
  store ptr %0, ptr %2, align 8, !tbaa !28
  call void @llvm.lifetime.start.p0(i64 24, ptr %3) #8
  call void @llvm.memcpy.p0.p0.i64(ptr align 8 %3, ptr align 8 @__const.graph_show_padding.msgbuf, i64 24, i1 false)
  %5 = load ptr, ptr @default_diffopt, align 8, !tbaa !11
  call void @graph_show_line_prefix(ptr noundef %5)
  %6 = load ptr, ptr %2, align 8, !tbaa !28
  %7 = icmp ne ptr %6, null
  br i1 %7, label %9, label %8

8:                                                ; preds = %1
  store i32 1, ptr %4, align 4
  br label %22

9:                                                ; preds = %1
  %10 = load ptr, ptr %2, align 8, !tbaa !28
  call void @graph_padding_line(ptr noundef %10, ptr noundef %3)
  %11 = getelementptr inbounds nuw %struct.strbuf, ptr %3, i32 0, i32 2
  %12 = load ptr, ptr %11, align 8, !tbaa !142
  %13 = getelementptr inbounds nuw %struct.strbuf, ptr %3, i32 0, i32 1
  %14 = load i64, ptr %13, align 8, !tbaa !143
  %15 = load ptr, ptr %2, align 8, !tbaa !28
  %16 = getelementptr inbounds nuw %struct.git_graph, ptr %15, i32 0, i32 1
  %17 = load ptr, ptr %16, align 8, !tbaa !78
  %18 = getelementptr inbounds nuw %struct.rev_info, ptr %17, i32 0, i32 53
  %19 = getelementptr inbounds nuw %struct.diff_options, ptr %18, i32 0, i32 55
  %20 = load ptr, ptr %19, align 8, !tbaa !144
  %21 = call i64 @fwrite(ptr noundef %12, i64 noundef 1, i64 noundef %14, ptr noundef %20)
  call void @strbuf_release(ptr noundef %3)
  store i32 0, ptr %4, align 4
  br label %22

22:                                               ; preds = %9, %8
  call void @llvm.lifetime.end.p0(i64 24, ptr %3) #8
  %23 = load i32, ptr %4, align 4
  switch i32 %23, label %25 [
    i32 0, label %24
    i32 1, label %24
  ]

24:                                               ; preds = %22, %22
  ret void

25:                                               ; preds = %22
  unreachable
}

; Function Attrs: nounwind uwtable
define dso_local i32 @graph_is_commit_finished(ptr noundef %0) #0 {
  %2 = alloca ptr, align 8
  store ptr %0, ptr %2, align 8, !tbaa !28
  %3 = load ptr, ptr %2, align 8, !tbaa !28
  %4 = getelementptr inbounds nuw %struct.git_graph, ptr %3, i32 0, i32 5
  %5 = load i32, ptr %4, align 4, !tbaa !81
  %6 = icmp eq i32 %5, 0
  %7 = zext i1 %6 to i32
  ret i32 %7
}

; Function Attrs: nounwind uwtable
define internal void @graph_show_line_prefix(ptr noundef %0) #0 {
  %2 = alloca ptr, align 8
  store ptr %0, ptr %2, align 8, !tbaa !11
  %3 = load ptr, ptr %2, align 8, !tbaa !11
  %4 = icmp ne ptr %3, null
  br i1 %4, label %5, label %10

5:                                                ; preds = %1
  %6 = load ptr, ptr %2, align 8, !tbaa !11
  %7 = getelementptr inbounds nuw %struct.diff_options, ptr %6, i32 0, i32 12
  %8 = load ptr, ptr %7, align 8, !tbaa !30
  %9 = icmp ne ptr %8, null
  br i1 %9, label %11, label %10

10:                                               ; preds = %5, %1
  br label %19

11:                                               ; preds = %5
  %12 = load ptr, ptr %2, align 8, !tbaa !11
  %13 = getelementptr inbounds nuw %struct.diff_options, ptr %12, i32 0, i32 12
  %14 = load ptr, ptr %13, align 8, !tbaa !30
  %15 = load ptr, ptr %2, align 8, !tbaa !11
  %16 = getelementptr inbounds nuw %struct.diff_options, ptr %15, i32 0, i32 55
  %17 = load ptr, ptr %16, align 8, !tbaa !146
  %18 = call i32 @fputs(ptr noundef %14, ptr noundef %17)
  br label %19

19:                                               ; preds = %11, %10
  ret void
}

; Function Attrs: nounwind uwtable
define dso_local void @graph_show_commit(ptr noundef %0) #0 {
  %2 = alloca ptr, align 8
  %3 = alloca %struct.strbuf, align 8
  %4 = alloca i32, align 4
  %5 = alloca i32, align 4
  store ptr %0, ptr %2, align 8, !tbaa !28
  call void @llvm.lifetime.start.p0(i64 24, ptr %3) #8
  call void @llvm.memcpy.p0.p0.i64(ptr align 8 %3, ptr align 8 @__const.graph_show_commit.msgbuf, i64 24, i1 false)
  call void @llvm.lifetime.start.p0(i64 4, ptr %4) #8
  store i32 0, ptr %4, align 4, !tbaa !73
  %6 = load ptr, ptr @default_diffopt, align 8, !tbaa !11
  call void @graph_show_line_prefix(ptr noundef %6)
  %7 = load ptr, ptr %2, align 8, !tbaa !28
  %8 = icmp ne ptr %7, null
  br i1 %8, label %10, label %9

9:                                                ; preds = %1
  store i32 1, ptr %5, align 4
  br label %57

10:                                               ; preds = %1
  %11 = load ptr, ptr %2, align 8, !tbaa !28
  %12 = call i32 @graph_is_commit_finished(ptr noundef %11)
  %13 = icmp ne i32 %12, 0
  br i1 %13, label %14, label %16

14:                                               ; preds = %10
  %15 = load ptr, ptr %2, align 8, !tbaa !28
  call void @graph_show_padding(ptr noundef %15)
  store i32 1, ptr %4, align 4, !tbaa !73
  br label %16

16:                                               ; preds = %14, %10
  br label %17

17:                                               ; preds = %55, %16
  %18 = load i32, ptr %4, align 4, !tbaa !73
  %19 = icmp ne i32 %18, 0
  br i1 %19, label %25, label %20

20:                                               ; preds = %17
  %21 = load ptr, ptr %2, align 8, !tbaa !28
  %22 = call i32 @graph_is_commit_finished(ptr noundef %21)
  %23 = icmp ne i32 %22, 0
  %24 = xor i1 %23, true
  br label %25

25:                                               ; preds = %20, %17
  %26 = phi i1 [ false, %17 ], [ %24, %20 ]
  br i1 %26, label %27, label %56

27:                                               ; preds = %25
  %28 = load ptr, ptr %2, align 8, !tbaa !28
  %29 = call i32 @graph_next_line(ptr noundef %28, ptr noundef %3)
  store i32 %29, ptr %4, align 4, !tbaa !73
  %30 = getelementptr inbounds nuw %struct.strbuf, ptr %3, i32 0, i32 2
  %31 = load ptr, ptr %30, align 8, !tbaa !142
  %32 = getelementptr inbounds nuw %struct.strbuf, ptr %3, i32 0, i32 1
  %33 = load i64, ptr %32, align 8, !tbaa !143
  %34 = load ptr, ptr %2, align 8, !tbaa !28
  %35 = getelementptr inbounds nuw %struct.git_graph, ptr %34, i32 0, i32 1
  %36 = load ptr, ptr %35, align 8, !tbaa !78
  %37 = getelementptr inbounds nuw %struct.rev_info, ptr %36, i32 0, i32 53
  %38 = getelementptr inbounds nuw %struct.diff_options, ptr %37, i32 0, i32 55
  %39 = load ptr, ptr %38, align 8, !tbaa !144
  %40 = call i64 @fwrite(ptr noundef %31, i64 noundef 1, i64 noundef %33, ptr noundef %39)
  %41 = load i32, ptr %4, align 4, !tbaa !73
  %42 = icmp ne i32 %41, 0
  br i1 %42, label %55, label %43

43:                                               ; preds = %27
  %44 = load ptr, ptr %2, align 8, !tbaa !28
  %45 = getelementptr inbounds nuw %struct.git_graph, ptr %44, i32 0, i32 1
  %46 = load ptr, ptr %45, align 8, !tbaa !78
  %47 = getelementptr inbounds nuw %struct.rev_info, ptr %46, i32 0, i32 53
  %48 = getelementptr inbounds nuw %struct.diff_options, ptr %47, i32 0, i32 55
  %49 = load ptr, ptr %48, align 8, !tbaa !144
  %50 = call i32 @putc(i32 noundef 10, ptr noundef %49)
  %51 = load ptr, ptr %2, align 8, !tbaa !28
  %52 = getelementptr inbounds nuw %struct.git_graph, ptr %51, i32 0, i32 1
  %53 = load ptr, ptr %52, align 8, !tbaa !78
  %54 = getelementptr inbounds nuw %struct.rev_info, ptr %53, i32 0, i32 53
  call void @graph_show_line_prefix(ptr noundef %54)
  br label %55

55:                                               ; preds = %43, %27
  call void @strbuf_setlen(ptr noundef %3, i64 noundef 0)
  br label %17, !llvm.loop !145

56:                                               ; preds = %25
  call void @strbuf_release(ptr noundef %3)
  store i32 0, ptr %5, align 4
  br label %57

57:                                               ; preds = %56, %9
  call void @llvm.lifetime.end.p0(i64 4, ptr %4) #8
  call void @llvm.lifetime.end.p0(i64 24, ptr %3) #8
  %58 = load i32, ptr %5, align 4
  switch i32 %58, label %60 [
    i32 0, label %59
    i32 1, label %59
  ]

59:                                               ; preds = %57, %57
  ret void

60:                                               ; preds = %57
  unreachable
}