; Function Attrs: nounwind uwtable
define dso_local void @graph_show_commit(ptr noundef %0) local_unnamed_addr #2 {
  %2 = alloca %struct.strbuf, align 8
  %3 = alloca %struct.strbuf, align 8
  call void @llvm.lifetime.start.p0(i64 24, ptr nonnull %3) #15
  call void @llvm.memcpy.p0.p0.i64(ptr noundef nonnull align 8 dereferenceable(24) %3, ptr noundef nonnull align 8 dereferenceable(24) @__const.graph_show_remainder.msgbuf, i64 24, i1 false)
  %4 = load ptr, ptr @default_diffopt, align 8, !tbaa !11
  %.not.i = icmp eq ptr %4, null
  br i1 %.not.i, label %graph_show_line_prefix.exit, label %5

5:                                                ; preds = %1
  %6 = getelementptr inbounds nuw i8, ptr %4, i64 88
  %7 = load ptr, ptr %6, align 8, !tbaa !31
  %.not5.i = icmp eq ptr %7, null
  br i1 %.not5.i, label %graph_show_line_prefix.exit, label %8

8:                                                ; preds = %5
  %9 = getelementptr inbounds nuw i8, ptr %4, i64 440
  %10 = load ptr, ptr %9, align 8, !tbaa !140
  %11 = tail call i32 @fputs(ptr noundef nonnull %7, ptr noundef %10)
  br label %graph_show_line_prefix.exit

graph_show_line_prefix.exit:                      ; preds = %1, %5, %8
  %.not = icmp eq ptr %0, null
  br i1 %.not, label %60, label %12

12:                                               ; preds = %graph_show_line_prefix.exit
  %13 = getelementptr inbounds nuw i8, ptr %0, i64 28
  %14 = load i32, ptr %13, align 4, !tbaa !121
  %.not18.not = icmp eq i32 %14, 0
  br i1 %.not18.not, label %15, label %.lr.ph

15:                                               ; preds = %12
  call void @llvm.lifetime.start.p0(i64 24, ptr nonnull %2) #15
  call void @llvm.memcpy.p0.p0.i64(ptr noundef nonnull align 8 dereferenceable(24) %2, ptr noundef nonnull align 8 dereferenceable(24) @__const.graph_show_remainder.msgbuf, i64 24, i1 false)
  %16 = load ptr, ptr @default_diffopt, align 8, !tbaa !11
  %.not.i.i = icmp eq ptr %16, null
  br i1 %.not.i.i, label %.thread, label %17

17:                                               ; preds = %15
  %18 = getelementptr inbounds nuw i8, ptr %16, i64 88
  %19 = load ptr, ptr %18, align 8, !tbaa !31
  %.not5.i.i = icmp eq ptr %19, null
  br i1 %.not5.i.i, label %.thread, label %20

20:                                               ; preds = %17
  %21 = getelementptr inbounds nuw i8, ptr %16, i64 440
  %22 = load ptr, ptr %21, align 8, !tbaa !140
  %23 = tail call i32 @fputs(ptr noundef nonnull %19, ptr noundef %22)
  br label %.thread

.thread:                                          ; preds = %15, %17, %20
  call fastcc void @graph_padding_line(ptr noundef nonnull %0, ptr noundef %2)
  %24 = getelementptr inbounds nuw i8, ptr %2, i64 16
  %25 = load ptr, ptr %24, align 8, !tbaa !29
  %26 = getelementptr inbounds nuw i8, ptr %2, i64 8
  %27 = load i64, ptr %26, align 8, !tbaa !27
  %28 = getelementptr inbounds nuw i8, ptr %0, i64 8
  %29 = load ptr, ptr %28, align 8, !tbaa !79
  %30 = getelementptr inbounds nuw i8, ptr %29, i64 1912
  %31 = load ptr, ptr %30, align 8, !tbaa !141
  %32 = call i64 @fwrite(ptr noundef %25, i64 noundef 1, i64 noundef %27, ptr noundef %31)
  call void @strbuf_release(ptr noundef nonnull %2) #15
  call void @llvm.lifetime.end.p0(i64 24, ptr nonnull %2) #15
  br label %.critedge

.lr.ph:                                           ; preds = %12
  %33 = getelementptr inbounds nuw i8, ptr %3, i64 16
  %34 = getelementptr inbounds nuw i8, ptr %3, i64 8
  %35 = getelementptr inbounds nuw i8, ptr %0, i64 8
  br label %36

36:                                               ; preds = %.lr.ph, %strbuf_setlen.exit
  %37 = load i32, ptr %13, align 4, !tbaa !121
  %.not19 = icmp eq i32 %37, 0
  br i1 %.not19, label %.critedge, label %38

38:                                               ; preds = %36
  %39 = call i32 @graph_next_line(ptr noundef nonnull %0, ptr noundef nonnull %3)
  %40 = load ptr, ptr %33, align 8, !tbaa !29
  %41 = load i64, ptr %34, align 8, !tbaa !27
  %42 = load ptr, ptr %35, align 8, !tbaa !79
  %43 = getelementptr inbounds nuw i8, ptr %42, i64 1912
  %44 = load ptr, ptr %43, align 8, !tbaa !141
  %45 = call i64 @fwrite(ptr noundef %40, i64 noundef 1, i64 noundef %41, ptr noundef %44)
  %.not13 = icmp eq i32 %39, 0
  br i1 %.not13, label %46, label %graph_show_line_prefix.exit17

46:                                               ; preds = %38
  %47 = load ptr, ptr %35, align 8, !tbaa !79
  %48 = getelementptr inbounds nuw i8, ptr %47, i64 1912
  %49 = load ptr, ptr %48, align 8, !tbaa !141
  %50 = call i32 @putc(i32 noundef 10, ptr noundef %49)
  %51 = load ptr, ptr %35, align 8, !tbaa !79
  %52 = getelementptr inbounds nuw i8, ptr %51, i64 1560
  %53 = load ptr, ptr %52, align 8, !tbaa !31
  %.not5.i16 = icmp eq ptr %53, null
  br i1 %.not5.i16, label %graph_show_line_prefix.exit17, label %54

54:                                               ; preds = %46
  %55 = getelementptr inbounds nuw i8, ptr %51, i64 1912
  %56 = load ptr, ptr %55, align 8, !tbaa !140
  %57 = call i32 @fputs(ptr noundef nonnull %53, ptr noundef %56)
  br label %graph_show_line_prefix.exit17

graph_show_line_prefix.exit17:                    ; preds = %54, %46, %38
  store i64 0, ptr %34, align 8, !tbaa !27
  %58 = load ptr, ptr %33, align 8, !tbaa !29
  %.not9.i = icmp eq ptr %58, @strbuf_slopbuf
  br i1 %.not9.i, label %strbuf_setlen.exit, label %59

59:                                               ; preds = %graph_show_line_prefix.exit17
  store i8 0, ptr %58, align 1, !tbaa !30
  br label %strbuf_setlen.exit

strbuf_setlen.exit:                               ; preds = %graph_show_line_prefix.exit17, %59
  br i1 %.not13, label %36, label %.critedge, !llvm.loop !142

.critedge:                                        ; preds = %36, %strbuf_setlen.exit, %.thread
  call void @strbuf_release(ptr noundef nonnull %3) #15
  br label %60

60:                                               ; preds = %graph_show_line_prefix.exit, %.critedge
  call void @llvm.lifetime.end.p0(i64 24, ptr nonnull %3) #15
  ret void
}